target datalayout = "e-m:e-p270:32:32-p271:32:32-p272:64:64-i64:64-i128:128-f80:128-n8:16:32:64-S128"
target triple = "x86_64-pc-linux-gnu"

%"class.std::__shared_count" = type { ptr }
%"class.std::shared_ptr" = type { %"class.std::__shared_ptr" }
%"class.std::__shared_ptr" = type { ptr, %"class.std::__shared_count" }
%"class.std::vector" = type { %"struct.std::_Vector_base" }
%"struct.std::_Vector_base" = type { %"struct.std::_Vector_base<std::__cxx11::basic_string<char>, std::allocator<std::__cxx11::basic_string<char>>>::_Vector_impl" }
%"struct.std::_Vector_base<std::__cxx11::basic_string<char>, std::allocator<std::__cxx11::basic_string<char>>>::_Vector_impl" = type { %"struct.std::_Vector_base<std::__cxx11::basic_string<char>, std::allocator<std::__cxx11::basic_string<char>>>::_Vector_impl_data" }
%"struct.std::_Vector_base<std::__cxx11::basic_string<char>, std::allocator<std::__cxx11::basic_string<char>>>::_Vector_impl_data" = type { ptr, ptr, ptr }
%"class.dropbox::oxygen::nn" = type { %"class.std::shared_ptr" }

@_ZTISt9exception = external constant ptr
@__FUNCTION__.proj_context_get_database_structure = private unnamed_addr constant [36 x i8] c"proj_context_get_database_structure\00", align 1

; Function Attrs: mustprogress nounwind uwtable
define linkonce_odr noundef ptr @_ZNKSt12__shared_ptrIN5osgeo4proj2io15DatabaseContextELN9__gnu_cxx12_Lock_policyE2EE3getEv(ptr noundef nonnull align 8 dereferenceable(16) %0) #0 comdat align 2 {
  %2 = alloca ptr, align 8
  store ptr %0, ptr %2, align 8
  %3 = load ptr, ptr %2, align 8
  %4 = getelementptr inbounds %"class.std::__shared_ptr", ptr %3, i32 0, i32 0
  %5 = load ptr, ptr %4, align 8
  ret ptr %5
}

; Function Attrs: mustprogress nounwind uwtable
define linkonce_odr noundef ptr @_ZNKSt19__shared_ptr_accessIN5osgeo4proj2io15DatabaseContextELN9__gnu_cxx12_Lock_policyE2ELb0ELb0EE6_M_getEv(ptr noundef nonnull align 1 dereferenceable(1) %0) #0 comdat align 2 {
  %2 = alloca ptr, align 8
  store ptr %0, ptr %2, align 8
  %3 = load ptr, ptr %2, align 8
  %4 = call noundef ptr @_ZNKSt12__shared_ptrIN5osgeo4proj2io15DatabaseContextELN9__gnu_cxx12_Lock_policyE2EE3getEv(ptr noundef nonnull align 8 dereferenceable(16) %3) #19
  ret ptr %4
}

; Function Attrs: mustprogress nounwind uwtable
define linkonce_odr noundef nonnull align 8 dereferenceable(8) ptr @_ZNKSt19__shared_ptr_accessIN5osgeo4proj2io15DatabaseContextELN9__gnu_cxx12_Lock_policyE2ELb0ELb0EEdeEv(ptr noundef nonnull align 1 dereferenceable(1) %0) #0 comdat align 2 {
  %2 = alloca ptr, align 8
  store ptr %0, ptr %2, align 8
  %3 = load ptr, ptr %2, align 8
  br label %4

4:                                                ; preds = %1
  br label %5

5:                                                ; preds = %4
  br label %6

6:                                                ; preds = %5
  %7 = call noundef ptr @_ZNKSt19__shared_ptr_accessIN5osgeo4proj2io15DatabaseContextELN9__gnu_cxx12_Lock_policyE2ELb0ELb0EE6_M_getEv(ptr noundef nonnull align 1 dereferenceable(1) %3) #19
  ret ptr %7
}

; Function Attrs: mustprogress nounwind uwtable
define linkonce_odr hidden noundef ptr @_ZNK7dropbox6oxygen2nnISt10shared_ptrIN5osgeo4proj2io15DatabaseContextEEEptEv(ptr noundef nonnull align 8 dereferenceable(16) %0) #0 comdat align 2 {
  %2 = alloca ptr, align 8
  store ptr %0, ptr %2, align 8
  %3 = load ptr, ptr %2, align 8
  %4 = getelementptr inbounds %"class.dropbox::oxygen::nn", ptr %3, i32 0, i32 0
  %5 = call noundef nonnull align 8 dereferenceable(8) ptr @_ZNKSt19__shared_ptr_accessIN5osgeo4proj2io15DatabaseContextELN9__gnu_cxx12_Lock_policyE2ELb0ELb0EEdeEv(ptr noundef nonnull align 1 dereferenceable(1) %4) #19
  ret ptr %5
}

; Function Attrs: mustprogress uwtable
define internal void @_ZL12getDBcontextP6pj_ctx(ptr dead_on_unwind noalias writable sret(%"class.dropbox::oxygen::nn") align 8 %0, ptr noundef %1) #2 {
  %3 = alloca ptr, align 8
  %4 = alloca ptr, align 8
  store ptr %0, ptr %3, align 8
  store ptr %1, ptr %4, align 8
  %5 = load ptr, ptr %4, align 8
  %6 = call noundef ptr @_ZN6pj_ctx15get_cpp_contextEv(ptr noundef nonnull align 8 dereferenceable(516) %5)
  call void @_ZN14projCppContext18getDatabaseContextEv(ptr dead_on_unwind writable sret(%"class.dropbox::oxygen::nn") align 8 %0, ptr noundef nonnull align 8 dereferenceable(272) %6)
  ret void
}

; Function Attrs: mustprogress uwtable
define ptr @proj_context_get_database_structure(ptr noundef %0, ptr noundef %1) #2 personality ptr @__gxx_personality_v0 {
  %3 = alloca ptr, align 8
  %4 = alloca ptr, align 8
  %5 = alloca ptr, align 8
  %6 = alloca ptr, align 8
  %7 = alloca %"class.std::vector", align 8
  %8 = alloca %"class.dropbox::oxygen::nn", align 8
  %9 = alloca ptr, align 8
  %10 = alloca i32, align 4
  %11 = alloca ptr, align 8
  store ptr %0, ptr %4, align 8
  store ptr %1, ptr %5, align 8
  br label %12

12:                                               ; preds = %2
  %13 = load ptr, ptr %4, align 8
  %14 = icmp eq ptr %13, null
  br i1 %14, label %15, label %17

15:                                               ; preds = %12
  %16 = call noundef ptr @_Z18pj_get_default_ctxv()
  store ptr %16, ptr %4, align 8
  br label %17

17:                                               ; preds = %15, %12
  br label %18

18:                                               ; preds = %17
  %19 = load ptr, ptr %4, align 8
  invoke void @_ZL12getDBcontextP6pj_ctx(ptr dead_on_unwind writable sret(%"class.dropbox::oxygen::nn") align 8 %8, ptr noundef %19)
          to label %20 unwind label %27

20:                                               ; preds = %18
  %21 = invoke noundef ptr @_ZNK7dropbox6oxygen2nnISt10shared_ptrIN5osgeo4proj2io15DatabaseContextEEEptEv(ptr noundef nonnull align 8 dereferenceable(16) %8)
          to label %22 unwind label %31

22:                                               ; preds = %20
  invoke void @_ZNK5osgeo4proj2io15DatabaseContext20getDatabaseStructureB5cxx11Ev(ptr dead_on_unwind writable sret(%"class.std::vector") align 8 %7, ptr noundef nonnull align 8 dereferenceable(8) %21)
          to label %23 unwind label %31

23:                                               ; preds = %22
  %24 = invoke noundef ptr @_ZL14to_string_listISt6vectorINSt7__cxx1112basic_stringIcSt11char_traitsIcESaIcEEESaIS6_EEEPPcOT_(ptr noundef nonnull align 8 dereferenceable(24) %7)
          to label %25 unwind label %35

25:                                               ; preds = %23
  call void @_ZNSt6vectorINSt7__cxx1112basic_stringIcSt11char_traitsIcESaIcEEESaIS5_EED2Ev(ptr noundef nonnull align 8 dereferenceable(24) %7) #19
  call void @_ZN7dropbox6oxygen2nnISt10shared_ptrIN5osgeo4proj2io15DatabaseContextEEED2Ev(ptr noundef nonnull align 8 dereferenceable(16) %8) #19
  store ptr %24, ptr %6, align 8
  %26 = load ptr, ptr %6, align 8
  store ptr %26, ptr %3, align 8
  br label %60

27:                                               ; preds = %18
  %28 = landingpad { ptr, i32 }
          catch ptr @_ZTISt9exception
  %29 = extractvalue { ptr, i32 } %28, 0
  store ptr %29, ptr %9, align 8
  %30 = extractvalue { ptr, i32 } %28, 1
  store i32 %30, ptr %10, align 4
  br label %40

31:                                               ; preds = %22, %20
  %32 = landingpad { ptr, i32 }
          cleanup
          catch ptr @_ZTISt9exception
  %33 = extractvalue { ptr, i32 } %32, 0
  store ptr %33, ptr %9, align 8
  %34 = extractvalue { ptr, i32 } %32, 1
  store i32 %34, ptr %10, align 4
  br label %39

35:                                               ; preds = %23
  %36 = landingpad { ptr, i32 }
          cleanup
          catch ptr @_ZTISt9exception
  %37 = extractvalue { ptr, i32 } %36, 0
  store ptr %37, ptr %9, align 8
  %38 = extractvalue { ptr, i32 } %36, 1
  store i32 %38, ptr %10, align 4
  call void @_ZNSt6vectorINSt7__cxx1112basic_stringIcSt11char_traitsIcESaIcEEESaIS5_EED2Ev(ptr noundef nonnull align 8 dereferenceable(24) %7) #19
  br label %39

39:                                               ; preds = %35, %31
  call void @_ZN7dropbox6oxygen2nnISt10shared_ptrIN5osgeo4proj2io15DatabaseContextEEED2Ev(ptr noundef nonnull align 8 dereferenceable(16) %8) #19
  br label %40

40:                                               ; preds = %39, %27
  %41 = load i32, ptr %10, align 4
  %42 = call i32 @llvm.eh.typeid.for(ptr @_ZTISt9exception) #19
  %43 = icmp eq i32 %41, %42
  br i1 %43, label %44, label %62

44:                                               ; preds = %40
  %45 = load ptr, ptr %9, align 8
  %46 = call ptr @__cxa_begin_catch(ptr %45) #19
  store ptr %46, ptr %11, align 8
  %47 = load ptr, ptr %4, align 8
  %48 = load ptr, ptr %11, align 8
  %49 = load ptr, ptr %48, align 8
  %50 = getelementptr inbounds ptr, ptr %49, i64 2
  %51 = load ptr, ptr %50, align 8
  %52 = call noundef ptr %51(ptr noundef nonnull align 8 dereferenceable(8) %48) #19
  invoke void @_ZL14proj_log_errorP6pj_ctxPKcS2_(ptr noundef %47, ptr noundef @__FUNCTION__.proj_context_get_database_structure, ptr noundef %52)
          to label %53 unwind label %54

53:                                               ; preds = %44
  store ptr null, ptr %3, align 8
  call void @__cxa_end_catch()
  br label %60

54:                                               ; preds = %44
  %55 = landingpad { ptr, i32 }
          cleanup
  %56 = extractvalue { ptr, i32 } %55, 0
  store ptr %56, ptr %9, align 8
  %57 = extractvalue { ptr, i32 } %55, 1
  store i32 %57, ptr %10, align 4
  invoke void @__cxa_end_catch()
          to label %58 unwind label %67

58:                                               ; preds = %54
  br label %62

59:                                               ; No predecessors!
  call void @llvm.trap()
  unreachable

60:                                               ; preds = %53, %25
  %61 = load ptr, ptr %3, align 8
  ret ptr %61

62:                                               ; preds = %58, %40
  %63 = load ptr, ptr %9, align 8
  %64 = load i32, ptr %10, align 4
  %65 = insertvalue { ptr, i32 } poison, ptr %63, 0
  %66 = insertvalue { ptr, i32 } %65, i32 %64, 1
  resume { ptr, i32 } %66

67:                                               ; preds = %54
  %68 = landingpad { ptr, i32 }
          catch ptr null
  %69 = extractvalue { ptr, i32 } %68, 0
  call void @__clang_call_terminate(ptr %69) #21
  unreachable
}