; Function Attrs: mustprogress uwtable
define noundef ptr @proj_context_get_database_structure(ptr noundef %0, ptr nocapture noundef readnone %1) local_unnamed_addr #2 personality ptr @__gxx_personality_v0 {
  %3 = alloca %"class.std::vector", align 8
  %4 = alloca %"class.dropbox::oxygen::nn", align 8
  %5 = icmp eq ptr %0, null
  br i1 %5, label %6, label %8

6:                                                ; preds = %2
  %7 = tail call noundef ptr @_Z18pj_get_default_ctxv()
  br label %8

8:                                                ; preds = %2, %6
  %.013 = phi ptr [ %7, %6 ], [ %0, %2 ]
  %9 = invoke noundef ptr @_ZN6pj_ctx15get_cpp_contextEv(ptr noundef nonnull align 8 dereferenceable(516) %.013)
          to label %.noexc unwind label %56

.noexc:                                           ; preds = %8
  invoke void @_ZN14projCppContext18getDatabaseContextEv(ptr dead_on_unwind nonnull writable sret(%"class.dropbox::oxygen::nn") align 8 %4, ptr noundef nonnull align 8 dereferenceable(272) %9)
          to label %_ZL12getDBcontextP6pj_ctx.exit unwind label %56

_ZL12getDBcontextP6pj_ctx.exit:                   ; preds = %.noexc
  %10 = load ptr, ptr %4, align 8
  invoke void @_ZNK5osgeo4proj2io15DatabaseContext20getDatabaseStructureB5cxx11Ev(ptr dead_on_unwind nonnull writable sret(%"class.std::vector") align 8 %3, ptr noundef nonnull align 8 dereferenceable(8) %10)
          to label %11 unwind label %58

11:                                               ; preds = %_ZL12getDBcontextP6pj_ctx.exit
  %.val = load ptr, ptr %3, align 8
  %12 = getelementptr inbounds i8, ptr %3, i64 8
  %.val17 = load ptr, ptr %12, align 8
  %13 = invoke fastcc noundef ptr @_ZL14to_string_listISt6vectorINSt7__cxx1112basic_stringIcSt11char_traitsIcESaIcEEESaIS6_EEEPPcOT_(ptr %.val, ptr %.val17)
          to label %14 unwind label %60

14:                                               ; preds = %11
  %15 = load ptr, ptr %3, align 8
  %16 = load ptr, ptr %12, align 8
  %.not4.i.i.i.i = icmp eq ptr %15, %16
  br i1 %.not4.i.i.i.i, label %_ZSt8_DestroyIPNSt7__cxx1112basic_stringIcSt11char_traitsIcESaIcEEES5_EvT_S7_RSaIT0_E.exit.i, label %.lr.ph.i.i.i.i

.lr.ph.i.i.i.i:                                   ; preds = %14, %.lr.ph.i.i.i.i
  %.05.i.i.i.i = phi ptr [ %17, %.lr.ph.i.i.i.i ], [ %15, %14 ]
  call void @_ZNSt7__cxx1112basic_stringIcSt11char_traitsIcESaIcEED1Ev(ptr noundef nonnull align 8 dereferenceable(32) %.05.i.i.i.i) #27
  %17 = getelementptr inbounds i8, ptr %.05.i.i.i.i, i64 32
  %.not.i.i.i.i = icmp eq ptr %17, %16
  br i1 %.not.i.i.i.i, label %_ZSt8_DestroyIPNSt7__cxx1112basic_stringIcSt11char_traitsIcESaIcEEES5_EvT_S7_RSaIT0_E.exitthread-pre-split.i, label %.lr.ph.i.i.i.i, !llvm.loop !4

_ZSt8_DestroyIPNSt7__cxx1112basic_stringIcSt11char_traitsIcESaIcEEES5_EvT_S7_RSaIT0_E.exitthread-pre-split.i: ; preds = %.lr.ph.i.i.i.i
  %.pr.i = load ptr, ptr %3, align 8
  br label %_ZSt8_DestroyIPNSt7__cxx1112basic_stringIcSt11char_traitsIcESaIcEEES5_EvT_S7_RSaIT0_E.exit.i

_ZSt8_DestroyIPNSt7__cxx1112basic_stringIcSt11char_traitsIcESaIcEEES5_EvT_S7_RSaIT0_E.exit.i: ; preds = %_ZSt8_DestroyIPNSt7__cxx1112basic_stringIcSt11char_traitsIcESaIcEEES5_EvT_S7_RSaIT0_E.exitthread-pre-split.i, %14
  %18 = phi ptr [ %.pr.i, %_ZSt8_DestroyIPNSt7__cxx1112basic_stringIcSt11char_traitsIcESaIcEEES5_EvT_S7_RSaIT0_E.exitthread-pre-split.i ], [ %15, %14 ]
  %.not.i.i.i = icmp eq ptr %18, null
  br i1 %.not.i.i.i, label %_ZNSt6vectorINSt7__cxx1112basic_stringIcSt11char_traitsIcESaIcEEESaIS5_EED2Ev.exit, label %19

19:                                               ; preds = %_ZSt8_DestroyIPNSt7__cxx1112basic_stringIcSt11char_traitsIcESaIcEEES5_EvT_S7_RSaIT0_E.exit.i
  call void @_ZdlPv(ptr noundef nonnull %18) #28
  br label %_ZNSt6vectorINSt7__cxx1112basic_stringIcSt11char_traitsIcESaIcEEESaIS5_EED2Ev.exit

_ZNSt6vectorINSt7__cxx1112basic_stringIcSt11char_traitsIcESaIcEEESaIS5_EED2Ev.exit: ; preds = %_ZSt8_DestroyIPNSt7__cxx1112basic_stringIcSt11char_traitsIcESaIcEEES5_EvT_S7_RSaIT0_E.exit.i, %19
  %20 = getelementptr inbounds i8, ptr %4, i64 8
  %21 = load ptr, ptr %20, align 8
  %.not.i.i.i.i19 = icmp eq ptr %21, null
  br i1 %.not.i.i.i.i19, label %_ZN7dropbox6oxygen2nnISt10shared_ptrIN5osgeo4proj2io15DatabaseContextEEED2Ev.exit, label %22

22:                                               ; preds = %_ZNSt6vectorINSt7__cxx1112basic_stringIcSt11char_traitsIcESaIcEEESaIS5_EED2Ev.exit
  %23 = getelementptr inbounds i8, ptr %21, i64 8
  %24 = load atomic i64, ptr %23 acquire, align 8
  %25 = icmp eq i64 %24, 4294967297
  %26 = trunc i64 %24 to i32
  br i1 %25, label %27, label %32

27:                                               ; preds = %22
  store i32 0, ptr %23, align 8
  %28 = getelementptr inbounds i8, ptr %21, i64 12
  store i32 0, ptr %28, align 4
  %29 = load ptr, ptr %21, align 8
  %30 = getelementptr inbounds i8, ptr %29, i64 16
  %31 = load ptr, ptr %30, align 8
  call void %31(ptr noundef nonnull align 8 dereferenceable(16) %21) #27
  br label %_ZNSt16_Sp_counted_baseILN9__gnu_cxx12_Lock_policyE2EE24_M_release_last_use_coldEv.exit.sink.split.i.i.i.i.i

32:                                               ; preds = %22
  %33 = load i8, ptr @__libc_single_threaded, align 1
  %.not.i.i.i.i.i = icmp eq i8 %33, 0
  br i1 %.not.i.i.i.i.i, label %36, label %34

34:                                               ; preds = %32
  %35 = add nsw i32 %26, -1
  store i32 %35, ptr %23, align 4
  br label %38

36:                                               ; preds = %32
  %37 = atomicrmw volatile add ptr %23, i32 -1 acq_rel, align 4
  br label %38

38:                                               ; preds = %36, %34
  %.0.i.i.i.i.i = phi i32 [ %26, %34 ], [ %37, %36 ]
  %39 = icmp eq i32 %.0.i.i.i.i.i, 1
  br i1 %39, label %40, label %_ZN7dropbox6oxygen2nnISt10shared_ptrIN5osgeo4proj2io15DatabaseContextEEED2Ev.exit

40:                                               ; preds = %38
  %41 = load ptr, ptr %21, align 8
  %42 = getelementptr inbounds i8, ptr %41, i64 16
  %43 = load ptr, ptr %42, align 8
  call void %43(ptr noundef nonnull align 8 dereferenceable(16) %21) #27
  %44 = getelementptr inbounds i8, ptr %21, i64 12
  %45 = load i8, ptr @__libc_single_threaded, align 1
  %.not.i.i.i.i.i.i.i = icmp eq i8 %45, 0
  br i1 %.not.i.i.i.i.i.i.i, label %49, label %46

46:                                               ; preds = %40
  %47 = load i32, ptr %44, align 4
  %48 = add nsw i32 %47, -1
  store i32 %48, ptr %44, align 4
  br label %51

49:                                               ; preds = %40
  %50 = atomicrmw volatile add ptr %44, i32 -1 acq_rel, align 4
  br label %51

51:                                               ; preds = %49, %46
  %.0.i.i.i.i.i.i.i = phi i32 [ %47, %46 ], [ %50, %49 ]
  %52 = icmp eq i32 %.0.i.i.i.i.i.i.i, 1
  br i1 %52, label %_ZNSt16_Sp_counted_baseILN9__gnu_cxx12_Lock_policyE2EE24_M_release_last_use_coldEv.exit.sink.split.i.i.i.i.i, label %_ZN7dropbox6oxygen2nnISt10shared_ptrIN5osgeo4proj2io15DatabaseContextEEED2Ev.exit

_ZNSt16_Sp_counted_baseILN9__gnu_cxx12_Lock_policyE2EE24_M_release_last_use_coldEv.exit.sink.split.i.i.i.i.i: ; preds = %51, %27
  %53 = load ptr, ptr %21, align 8
  %54 = getelementptr inbounds i8, ptr %53, i64 24
  %55 = load ptr, ptr %54, align 8
  call void %55(ptr noundef nonnull align 8 dereferenceable(16) %21) #27
  br label %_ZN7dropbox6oxygen2nnISt10shared_ptrIN5osgeo4proj2io15DatabaseContextEEED2Ev.exit

56:                                               ; preds = %.noexc, %8
  %57 = landingpad { ptr, i32 }
          catch ptr @_ZTISt9exception
  br label %63

58:                                               ; preds = %_ZL12getDBcontextP6pj_ctx.exit
  %59 = landingpad { ptr, i32 }
          cleanup
          catch ptr @_ZTISt9exception
  br label %62

60:                                               ; preds = %11
  %61 = landingpad { ptr, i32 }
          cleanup
          catch ptr @_ZTISt9exception
  call void @_ZNSt6vectorINSt7__cxx1112basic_stringIcSt11char_traitsIcESaIcEEESaIS5_EED2Ev(ptr noundef nonnull align 8 dereferenceable(24) %3) #27
  br label %62

62:                                               ; preds = %60, %58
  %.pn = phi { ptr, i32 } [ %61, %60 ], [ %59, %58 ]
  call void @_ZN7dropbox6oxygen2nnISt10shared_ptrIN5osgeo4proj2io15DatabaseContextEEED2Ev(ptr noundef nonnull align 8 dereferenceable(16) %4) #27
  br label %63

63:                                               ; preds = %62, %56
  %.pn.pn = phi { ptr, i32 } [ %.pn, %62 ], [ %57, %56 ]
  %.1 = extractvalue { ptr, i32 } %.pn.pn, 1
  %64 = call i32 @llvm.eh.typeid.for(ptr nonnull @_ZTISt9exception) #27
  %65 = icmp eq i32 %.1, %64
  br i1 %65, label %66, label %75

66:                                               ; preds = %63
  %.111 = extractvalue { ptr, i32 } %.pn.pn, 0
  %67 = call ptr @__cxa_begin_catch(ptr %.111) #27
  %68 = load ptr, ptr %67, align 8
  %69 = getelementptr inbounds i8, ptr %68, i64 16
  %70 = load ptr, ptr %69, align 8
  %71 = call noundef ptr %70(ptr noundef nonnull align 8 dereferenceable(8) %67) #27
  invoke fastcc void @_ZL14proj_log_errorP6pj_ctxPKcS2_(ptr noundef %.013, ptr noundef nonnull @__FUNCTION__.proj_context_get_database_structure, ptr noundef %71)
          to label %72 unwind label %73

72:                                               ; preds = %66
  call void @__cxa_end_catch()
  br label %_ZN7dropbox6oxygen2nnISt10shared_ptrIN5osgeo4proj2io15DatabaseContextEEED2Ev.exit

73:                                               ; preds = %66
  %74 = landingpad { ptr, i32 }
          cleanup
  invoke void @__cxa_end_catch()
          to label %75 unwind label %76

_ZN7dropbox6oxygen2nnISt10shared_ptrIN5osgeo4proj2io15DatabaseContextEEED2Ev.exit: ; preds = %_ZNSt16_Sp_counted_baseILN9__gnu_cxx12_Lock_policyE2EE24_M_release_last_use_coldEv.exit.sink.split.i.i.i.i.i, %51, %38, %_ZNSt6vectorINSt7__cxx1112basic_stringIcSt11char_traitsIcESaIcEEESaIS5_EED2Ev.exit, %72
  %.0 = phi ptr [ null, %72 ], [ %13, %_ZNSt6vectorINSt7__cxx1112basic_stringIcSt11char_traitsIcESaIcEEESaIS5_EED2Ev.exit ], [ %13, %38 ], [ %13, %51 ], [ %13, %_ZNSt16_Sp_counted_baseILN9__gnu_cxx12_Lock_policyE2EE24_M_release_last_use_coldEv.exit.sink.split.i.i.i.i.i ]
  ret ptr %.0

75:                                               ; preds = %73, %63
  %.merged = phi { ptr, i32 } [ %74, %73 ], [ %.pn.pn, %63 ]
  resume { ptr, i32 } %.merged

76:                                               ; preds = %73
  %77 = landingpad { ptr, i32 }
          catch ptr null
  %78 = extractvalue { ptr, i32 } %77, 0
  call void @__clang_call_terminate(ptr %78) #31
  unreachable
}